; Function Attrs: mustprogress uwtable
define void @_ZN18ConversationActionC2EP7QObjectP21conversation_filter_s(ptr noundef nonnull align 8 dereferenceable(52) %0, ptr noundef %1, ptr noundef %2) unnamed_addr #0 align 2 personality ptr @__gxx_personality_v0 {
  %4 = alloca %class.QString, align 16
  %5 = alloca %class.QString, align 16
  tail call void @_ZN7QActionC2EP7QObject(ptr noundef nonnull align 8 dereferenceable(16) %0, ptr noundef %1)
  store ptr getelementptr inbounds ({ [14 x ptr] }, ptr @_ZTV18ConversationAction, i64 0, i32 0, i64 2), ptr %0, align 8
  %6 = getelementptr inbounds i8, ptr %0, i64 24
  tail call void @llvm.memset.p0.i64(ptr noundef nonnull align 8 dereferenceable(24) %6, i8 0, i64 24, i1 false)
  %7 = getelementptr inbounds i8, ptr %0, i64 48
  store i32 -1, ptr %7, align 8
  %8 = getelementptr inbounds i8, ptr %0, i64 16
  store ptr %2, ptr %8, align 8
  %.not = icmp eq ptr %2, null
  br i1 %.not, label %_ZN7QStringD2Ev.exit, label %9

9:                                                ; preds = %3
  %10 = getelementptr inbounds i8, ptr %2, i64 8
  %11 = load ptr, ptr %10, align 8
  call void @llvm.lifetime.start.p0(i64 24, ptr nonnull %4)
  %.not.i.i = icmp eq ptr %11, null
  br i1 %.not.i.i, label %_ZN7QStringD2Ev.exit.i, label %.split.i.i

.split.i.i:                                       ; preds = %9
  %12 = tail call noundef i64 @strlen(ptr noundef nonnull dereferenceable(1) %11) #7
  br label %_ZN7QStringD2Ev.exit.i

_ZN7QStringD2Ev.exit.i:                           ; preds = %.split.i.i, %9
  %.sink5.i.i = phi i64 [ %12, %.split.i.i ], [ 0, %9 ]
  invoke void @_ZN7QString8fromUtf8E14QByteArrayView(ptr dead_on_unwind nonnull writable sret(%class.QString) align 8 %4, i64 %.sink5.i.i, ptr %11)
          to label %13 unwind label %23

13:                                               ; preds = %_ZN7QStringD2Ev.exit.i
  %14 = load <2 x ptr>, ptr %4, align 16
  store <2 x ptr> %14, ptr %5, align 16
  %15 = getelementptr inbounds i8, ptr %5, i64 16
  %16 = getelementptr inbounds i8, ptr %4, i64 16
  %17 = load i64, ptr %16, align 16
  store i64 %17, ptr %15, align 16
  call void @llvm.lifetime.end.p0(i64 24, ptr nonnull %4)
  invoke void @_ZN7QAction7setTextERK7QString(ptr noundef nonnull align 8 dereferenceable(16) %0, ptr noundef nonnull align 8 dereferenceable(24) %5)
          to label %18 unwind label %25

18:                                               ; preds = %13
  %19 = load ptr, ptr %5, align 16
  %.not.i.i.i = icmp eq ptr %19, null
  br i1 %.not.i.i.i, label %_ZN7QStringD2Ev.exit, label %_ZN17QArrayDataPointerIDsE5derefEv.exit.i.i

_ZN17QArrayDataPointerIDsE5derefEv.exit.i.i:      ; preds = %18
  %20 = atomicrmw sub ptr %19, i32 1 seq_cst, align 4
  %.not.i.i7 = icmp eq i32 %20, 1
  br i1 %.not.i.i7, label %21, label %_ZN7QStringD2Ev.exit

21:                                               ; preds = %_ZN17QArrayDataPointerIDsE5derefEv.exit.i.i
  %22 = load ptr, ptr %5, align 16
  call void @_ZN10QArrayData10deallocateEPS_xx(ptr noundef %22, i64 noundef 2, i64 noundef 8) #7
  br label %_ZN7QStringD2Ev.exit

23:                                               ; preds = %_ZN7QStringD2Ev.exit.i
  %24 = landingpad { ptr, i32 }
          cleanup
  br label %_ZN7QStringD2Ev.exit11

25:                                               ; preds = %13
  %26 = landingpad { ptr, i32 }
          cleanup
  %27 = load ptr, ptr %5, align 16
  %.not.i.i.i8 = icmp eq ptr %27, null
  br i1 %.not.i.i.i8, label %_ZN7QStringD2Ev.exit11, label %_ZN17QArrayDataPointerIDsE5derefEv.exit.i.i9

_ZN17QArrayDataPointerIDsE5derefEv.exit.i.i9:     ; preds = %25
  %28 = atomicrmw sub ptr %27, i32 1 seq_cst, align 4
  %.not.i.i10 = icmp eq i32 %28, 1
  br i1 %.not.i.i10, label %29, label %_ZN7QStringD2Ev.exit11

29:                                               ; preds = %_ZN17QArrayDataPointerIDsE5derefEv.exit.i.i9
  %30 = load ptr, ptr %5, align 16
  call void @_ZN10QArrayData10deallocateEPS_xx(ptr noundef %30, i64 noundef 2, i64 noundef 8) #7
  br label %_ZN7QStringD2Ev.exit11

_ZN7QStringD2Ev.exit:                             ; preds = %21, %_ZN17QArrayDataPointerIDsE5derefEv.exit.i.i, %18, %3
  ret void

_ZN7QStringD2Ev.exit11:                           ; preds = %29, %_ZN17QArrayDataPointerIDsE5derefEv.exit.i.i9, %25, %23
  %.pn = phi { ptr, i32 } [ %24, %23 ], [ %26, %25 ], [ %26, %_ZN17QArrayDataPointerIDsE5derefEv.exit.i.i9 ], [ %26, %29 ]
  call void @_ZN10QByteArrayD2Ev(ptr noundef nonnull align 8 dereferenceable(24) %6) #7
  call void @_ZN7QActionD2Ev(ptr noundef nonnull align 8 dereferenceable(16) %0) #7
  resume { ptr, i32 } %.pn
}